target datalayout = "e-m:e-p270:32:32-p271:32:32-p272:64:64-i64:64-i128:128-f80:128-n8:16:32:64-S128"
target triple = "x86_64-pc-linux-gnu"

%"class.net::SpdyFramerVisitorAdapter" = type { %"class.net::SpdyFramerVisitorInterface", ptr, ptr }
%"class.net::SpdyFramerVisitorInterface" = type { ptr }

; Function Attrs: mustprogress uwtable
define void @_ZN3net24SpdyFramerVisitorAdapter9OnBlockedEj(ptr noundef nonnull align 8 dereferenceable(24) %0, i32 noundef %1) unnamed_addr #2 align 2 {
  %3 = alloca ptr, align 8
  %4 = alloca i32, align 4
  store ptr %0, ptr %3, align 8, !tbaa !22
  store i32 %1, ptr %4, align 4, !tbaa !30
  %5 = load ptr, ptr %3, align 8
  %6 = getelementptr inbounds nuw %"class.net::SpdyFramerVisitorAdapter", ptr %5, i32 0, i32 1
  %7 = load ptr, ptr %6, align 8, !tbaa !26
  %8 = load i32, ptr %4, align 4, !tbaa !30
  %9 = load ptr, ptr %7, align 8, !tbaa !8
  %10 = getelementptr inbounds ptr, ptr %9, i64 24
  %11 = load ptr, ptr %10, align 8
  call void %11(ptr noundef nonnull align 8 dereferenceable(8) %7, i32 noundef %8)
  ret void
}